target datalayout = "e-m:e-p270:32:32-p271:32:32-p272:64:64-i64:64-i128:128-f80:128-n8:16:32:64-S128"
target triple = "x86_64-pc-linux-gnu"

%struct._object = type { i64, ptr }
%"class.nanobind::object" = type { %"class.nanobind::handle" }
%"class.nanobind::handle" = type { ptr }
%class.anon.101 = type { i8 }
%"struct.nanobind::detail::tuple.103" = type { %"struct.nanobind::detail::type_caster" }
%"struct.nanobind::detail::type_caster" = type { %"class.nanobind::callable" }
%"class.nanobind::callable" = type { %"class.nanobind::object" }

@_Py_NoneStruct = external global %struct._object, align 8
@_ZTIN8nanobind12python_errorE = external constant ptr
@PyExc_RuntimeError = external global ptr, align 8
@.str.38 = private unnamed_addr constant [26 x i8] c"Call with value %i failed\00", align 1

; Function Attrs: mustprogress nounwind optsize uwtable
define linkonce_odr hidden void @_ZN8nanobind6objectC2ENS_6handleENS_6detail7steal_tE(ptr noundef nonnull align 8 dereferenceable(8) %0, ptr %1) unnamed_addr #8 comdat align 2 {
  %3 = alloca %"class.nanobind::handle", align 8
  %4 = alloca ptr, align 8
  %5 = getelementptr inbounds nuw %"class.nanobind::handle", ptr %3, i32 0, i32 0
  store ptr %1, ptr %5, align 8
  store ptr %0, ptr %4, align 8, !tbaa !18
  %6 = load ptr, ptr %4, align 8
  call void @llvm.memcpy.p0.p0.i64(ptr align 8 %6, ptr align 8 %3, i64 8, i1 false)
  ret void
}

; Function Attrs: alwaysinline mustprogress nounwind optsize uwtable
define linkonce_odr hidden void @_ZN8nanobind8callableC2ENS_6handleENS_6detail7steal_tE(ptr noundef nonnull align 8 dereferenceable(8) %0, ptr %1) unnamed_addr #5 comdat align 2 {
  %3 = alloca %"class.nanobind::handle", align 8
  %4 = alloca ptr, align 8
  %5 = alloca %"class.nanobind::handle", align 8
  %6 = getelementptr inbounds nuw %"class.nanobind::handle", ptr %3, i32 0, i32 0
  store ptr %1, ptr %6, align 8
  store ptr %0, ptr %4, align 8, !tbaa !127
  %7 = load ptr, ptr %4, align 8
  call void @llvm.memcpy.p0.p0.i64(ptr align 8 %5, ptr align 8 %3, i64 8, i1 false)
  %8 = getelementptr inbounds nuw %"class.nanobind::handle", ptr %5, i32 0, i32 0
  %9 = load ptr, ptr %8, align 8
  call void @_ZN8nanobind6objectC2ENS_6handleENS_6detail7steal_tE(ptr noundef nonnull align 8 dereferenceable(8) %7, ptr %9) #15
  ret void
}

; Function Attrs: alwaysinline mustprogress nounwind optsize uwtable
define linkonce_odr hidden void @_ZN8nanobind6handleC2EDn(ptr noundef nonnull align 8 dereferenceable(8) %0, ptr %1) unnamed_addr #5 comdat align 2 {
  %3 = alloca ptr, align 8
  %4 = alloca ptr, align 8
  store ptr %0, ptr %3, align 8, !tbaa !12
  store ptr %1, ptr %4, align 8, !tbaa !132
  %5 = load ptr, ptr %3, align 8
  %6 = getelementptr inbounds nuw %"class.nanobind::handle", ptr %5, i32 0, i32 0
  store ptr null, ptr %6, align 8, !tbaa !14
  ret void
}

; Function Attrs: inlinehint mustprogress nounwind optsize uwtable
define linkonce_odr hidden void @_ZN8nanobind6detail11type_casterINS_8callableEiED2Ev(ptr noundef nonnull align 8 dereferenceable(8) %0) unnamed_addr #10 comdat align 2 {
  %2 = alloca ptr, align 8
  store ptr %0, ptr %2, align 8, !tbaa !125
  %3 = load ptr, ptr %2, align 8
  %4 = getelementptr inbounds nuw %"struct.nanobind::detail::type_caster", ptr %3, i32 0, i32 0
  call void @_ZN8nanobind6objectD2Ev(ptr noundef nonnull align 8 dereferenceable(8) %4) #17
  ret void
}

; Function Attrs: mustprogress nounwind optsize uwtable
define linkonce_odr hidden void @_ZN8nanobind6objectC2EOS0_(ptr noundef nonnull align 8 dereferenceable(8) %0, ptr noundef nonnull align 8 dereferenceable(8) %1) unnamed_addr #8 comdat align 2 {
  %3 = alloca ptr, align 8
  %4 = alloca ptr, align 8
  store ptr %0, ptr %3, align 8, !tbaa !18
  store ptr %1, ptr %4, align 8, !tbaa !18
  %5 = load ptr, ptr %3, align 8
  %6 = load ptr, ptr %4, align 8, !tbaa !18
  call void @llvm.memcpy.p0.p0.i64(ptr align 8 %5, ptr align 8 %6, i64 8, i1 false)
  %7 = load ptr, ptr %4, align 8, !tbaa !18
  %8 = getelementptr inbounds nuw %"class.nanobind::handle", ptr %7, i32 0, i32 0
  store ptr null, ptr %8, align 8, !tbaa !14
  ret void
}

; Function Attrs: mustprogress optsize uwtable
define linkonce_odr hidden void @_ZN8nanobind6detail11type_casterINS_8callableEiEC2Ev(ptr noundef nonnull align 8 dereferenceable(8) %0) unnamed_addr #0 comdat align 2 {
  %2 = alloca ptr, align 8
  %3 = alloca %"class.nanobind::handle", align 8
  store ptr %0, ptr %2, align 8, !tbaa !125
  %4 = load ptr, ptr %2, align 8
  %5 = getelementptr inbounds nuw %"struct.nanobind::detail::type_caster", ptr %4, i32 0, i32 0
  call void @_ZN8nanobind6handleC2EDn(ptr noundef nonnull align 8 dereferenceable(8) %3, ptr null) #15
  %6 = getelementptr inbounds nuw %"class.nanobind::handle", ptr %3, i32 0, i32 0
  %7 = load ptr, ptr %6, align 8
  call void @_ZN8nanobind8callableC2ENS_6handleENS_6detail7steal_tE(ptr noundef nonnull align 8 dereferenceable(8) %5, ptr %7) #15
  ret void
}

; Function Attrs: inlinehint mustprogress nounwind optsize uwtable
define linkonce_odr hidden void @_ZN8nanobind6detail5tupleIJNS0_11type_casterINS_8callableEiEEEED2Ev(ptr noundef nonnull align 8 dereferenceable(8) %0) unnamed_addr #10 comdat align 2 {
  %2 = alloca ptr, align 8
  store ptr %0, ptr %2, align 8, !tbaa !123
  %3 = load ptr, ptr %2, align 8
  %4 = getelementptr inbounds nuw %"struct.nanobind::detail::tuple.103", ptr %3, i32 0, i32 0
  call void @_ZN8nanobind6detail11type_casterINS_8callableEiED2Ev(ptr noundef nonnull align 8 dereferenceable(8) %4) #17
  ret void
}

; Function Attrs: inlinehint mustprogress nounwind optsize uwtable
define internal void @_ZL10_Py_INCREFP7_object(ptr noundef %0) #10 {
  %2 = alloca ptr, align 8
  store ptr %0, ptr %2, align 8, !tbaa !3
  %3 = load ptr, ptr %2, align 8, !tbaa !3
  %4 = getelementptr inbounds nuw %struct._object, ptr %3, i32 0, i32 0
  %5 = load i64, ptr %4, align 8, !tbaa !20
  %6 = add nsw i64 %5, 1
  store i64 %6, ptr %4, align 8, !tbaa !20
  ret void
}

; Function Attrs: mustprogress nounwind optsize uwtable
define linkonce_odr hidden void @_ZN8nanobind6objectD2Ev(ptr noundef nonnull align 8 dereferenceable(8) %0) unnamed_addr #8 comdat align 2 {
  %2 = alloca ptr, align 8
  store ptr %0, ptr %2, align 8, !tbaa !18
  %3 = load ptr, ptr %2, align 8
  %4 = call noundef nonnull align 8 dereferenceable(8) ptr @_ZNKR8nanobind6handle7dec_refEv(ptr noundef nonnull align 8 dereferenceable(8) %3) #17
  ret void
}

; Function Attrs: inlinehint mustprogress optsize uwtable
define internal void @"_ZZL32nanobind_init_test_exception_extRN8nanobind7module_EENK4$_19clENS_8callableE"(ptr noundef nonnull align 1 dereferenceable(1) %0, ptr noundef %1) #9 align 2 personality ptr @__gxx_personality_v0 {
  %3 = alloca ptr, align 8
  %4 = alloca ptr, align 8
  %5 = alloca i32, align 4
  %6 = alloca %"class.nanobind::object", align 8
  %7 = alloca ptr, align 8
  %8 = alloca i32, align 4
  %9 = alloca ptr, align 8
  %10 = alloca %"class.nanobind::handle", align 8
  store ptr %0, ptr %3, align 8, !tbaa !26
  store ptr %1, ptr %4, align 8, !tbaa !127
  call void @llvm.lifetime.start.p0(i64 4, ptr %5) #16
  store i32 123, ptr %5, align 4, !tbaa !129
  invoke void @_ZNK8nanobind6detail3apiINS_6handleEEclILNS_9rv_policyE1EJRiEEENS_6objectEDpOT0_(ptr dead_on_unwind writable sret(%"class.nanobind::object") align 8 %6, ptr noundef nonnull align 1 dereferenceable(1) %1, ptr noundef nonnull align 4 dereferenceable(4) %5) #15
          to label %11 unwind label %12

11:                                               ; preds = %2
  call void @_ZN8nanobind6objectD2Ev(ptr noundef nonnull align 8 dereferenceable(8) %6) #17
  br label %35

12:                                               ; preds = %2
  %13 = landingpad { ptr, i32 }
          cleanup
          catch ptr @_ZTIN8nanobind12python_errorE
  %14 = extractvalue { ptr, i32 } %13, 0
  store ptr %14, ptr %7, align 8
  %15 = extractvalue { ptr, i32 } %13, 1
  store i32 %15, ptr %8, align 4
  br label %16

16:                                               ; preds = %12
  %17 = load i32, ptr %8, align 4
  %18 = call i32 @llvm.eh.typeid.for.p0(ptr @_ZTIN8nanobind12python_errorE) #16
  %19 = icmp eq i32 %17, %18
  br i1 %19, label %20, label %36

20:                                               ; preds = %16
  call void @llvm.lifetime.start.p0(i64 8, ptr %9) #16
  %21 = load ptr, ptr %7, align 8
  %22 = call ptr @__cxa_begin_catch(ptr %21) #16
  store ptr %22, ptr %9, align 8
  %23 = load ptr, ptr %9, align 8, !tbaa !130
  %24 = load ptr, ptr @PyExc_RuntimeError, align 8, !tbaa !3
  invoke void @_ZN8nanobind6handleC2EPK7_object(ptr noundef nonnull align 8 dereferenceable(8) %10, ptr noundef %24) #15
          to label %25 unwind label %30

25:                                               ; preds = %20
  %26 = load i32, ptr %5, align 4, !tbaa !129
  %27 = getelementptr inbounds nuw %"class.nanobind::handle", ptr %10, i32 0, i32 0
  %28 = load ptr, ptr %27, align 8
  invoke void (ptr, ptr, ptr, ...) @_ZN8nanobind10raise_fromERNS_12python_errorENS_6handleEPKcz(ptr noundef nonnull align 8 dereferenceable(40) %23, ptr %28, ptr noundef @.str.38, i32 noundef %26) #21
          to label %29 unwind label %30

29:                                               ; preds = %25
  unreachable

30:                                               ; preds = %25, %20
  %31 = landingpad { ptr, i32 }
          cleanup
  %32 = extractvalue { ptr, i32 } %31, 0
  store ptr %32, ptr %7, align 8
  %33 = extractvalue { ptr, i32 } %31, 1
  store i32 %33, ptr %8, align 4
  invoke void @__cxa_end_catch()
          to label %34 unwind label %42

34:                                               ; preds = %30
  call void @llvm.lifetime.end.p0(i64 8, ptr %9) #16
  br label %36

35:                                               ; preds = %11
  call void @llvm.lifetime.end.p0(i64 4, ptr %5) #16
  ret void

36:                                               ; preds = %34, %16
  call void @llvm.lifetime.end.p0(i64 4, ptr %5) #16
  br label %37

37:                                               ; preds = %36
  %38 = load ptr, ptr %7, align 8
  %39 = load i32, ptr %8, align 4
  %40 = insertvalue { ptr, i32 } poison, ptr %38, 0
  %41 = insertvalue { ptr, i32 } %40, i32 %39, 1
  resume { ptr, i32 } %41

42:                                               ; preds = %30
  %43 = landingpad { ptr, i32 }
          catch ptr null
  %44 = extractvalue { ptr, i32 } %43, 0
  call void @__clang_call_terminate(ptr %44) #18
  unreachable
}

; Function Attrs: inlinehint mustprogress nounwind optsize uwtable
define linkonce_odr hidden void @_ZN8nanobind8callableC2EOS0_(ptr noundef nonnull align 8 dereferenceable(8) %0, ptr noundef nonnull align 8 dereferenceable(8) %1) unnamed_addr #10 comdat align 2 {
  %3 = alloca ptr, align 8
  %4 = alloca ptr, align 8
  store ptr %0, ptr %3, align 8, !tbaa !127
  store ptr %1, ptr %4, align 8, !tbaa !127
  %5 = load ptr, ptr %3, align 8
  %6 = load ptr, ptr %4, align 8, !tbaa !127
  call void @_ZN8nanobind6objectC2EOS0_(ptr noundef nonnull align 8 dereferenceable(8) %5, ptr noundef nonnull align 8 dereferenceable(8) %6) #17
  ret void
}

; Function Attrs: mustprogress nounwind optsize uwtable
define linkonce_odr hidden noundef nonnull align 8 dereferenceable(8) ptr @_ZN8nanobind6detail11type_casterINS_8callableEiEcvOS2_Ev(ptr noundef nonnull align 8 dereferenceable(8) %0) #8 comdat align 2 {
  %2 = alloca ptr, align 8
  store ptr %0, ptr %2, align 8, !tbaa !125
  %3 = load ptr, ptr %2, align 8
  %4 = getelementptr inbounds nuw %"struct.nanobind::detail::type_caster", ptr %3, i32 0, i32 0
  ret ptr %4
}

; Function Attrs: alwaysinline mustprogress nounwind optsize uwtable
define linkonce_odr hidden void @_ZN8nanobind6handleC2EPK7_object(ptr noundef nonnull align 8 dereferenceable(8) %0, ptr noundef %1) unnamed_addr #5 comdat align 2 {
  %3 = alloca ptr, align 8
  %4 = alloca ptr, align 8
  store ptr %0, ptr %3, align 8, !tbaa !12
  store ptr %1, ptr %4, align 8, !tbaa !3
  %5 = load ptr, ptr %3, align 8
  %6 = getelementptr inbounds nuw %"class.nanobind::handle", ptr %5, i32 0, i32 0
  %7 = load ptr, ptr %4, align 8, !tbaa !3
  store ptr %7, ptr %6, align 8, !tbaa !14
  ret void
}

; Function Attrs: alwaysinline mustprogress nounwind optsize uwtable
define linkonce_odr hidden noundef nonnull align 8 dereferenceable(8) ptr @_ZN8nanobind6detail5tupleIJNS0_11type_casterINS_8callableEiEEEE3getILm0EEERDav(ptr noundef nonnull align 8 dereferenceable(8) %0) #5 comdat align 2 {
  %2 = alloca ptr, align 8
  store ptr %0, ptr %2, align 8, !tbaa !123
  %3 = load ptr, ptr %2, align 8
  %4 = getelementptr inbounds nuw %"struct.nanobind::detail::tuple.103", ptr %3, i32 0, i32 0
  ret ptr %4
}

; Function Attrs: mustprogress optsize uwtable
define linkonce_odr hidden void @_ZN8nanobind6detail5tupleIJNS0_11type_casterINS_8callableEiEEEEC2Ev(ptr noundef nonnull align 8 dereferenceable(8) %0) unnamed_addr #0 comdat align 2 {
  %2 = alloca ptr, align 8
  store ptr %0, ptr %2, align 8, !tbaa !123
  %3 = load ptr, ptr %2, align 8
  %4 = getelementptr inbounds nuw %"struct.nanobind::detail::tuple.103", ptr %3, i32 0, i32 0
  call void @_ZN8nanobind6detail11type_casterINS_8callableEiEC2Ev(ptr noundef nonnull align 8 dereferenceable(8) %4) #15
  ret void
}

; Function Attrs: alwaysinline mustprogress optsize uwtable
define internal noundef ptr @"_ZZN8nanobind6detail11func_createILb0ELb1EZL32nanobind_init_test_exception_extRNS_7module_EE4$_19vJNS_8callableEEJLm0EEJNS_5scopeENS_4nameEEEEP7_objectOT1_PFT2_DpT3_ESt16integer_sequenceImJXspT4_EEEDpRKT5_ENKUlPvPS9_PhNS_9rv_policyEPNS0_12cleanup_listEE_clESN_SO_SP_SQ_SS_"(ptr noundef nonnull align 1 dereferenceable(1) %0, ptr noundef %1, ptr noundef %2, ptr noundef %3, i32 noundef %4, ptr noundef %5) #3 align 2 personality ptr @__gxx_personality_v0 {
  %7 = alloca ptr, align 8
  %8 = alloca ptr, align 8
  %9 = alloca ptr, align 8
  %10 = alloca ptr, align 8
  %11 = alloca ptr, align 8
  %12 = alloca i32, align 4
  %13 = alloca ptr, align 8
  %14 = alloca ptr, align 8
  %15 = alloca %"struct.nanobind::detail::tuple.103", align 8
  %16 = alloca ptr, align 8
  %17 = alloca i32, align 4
  %18 = alloca %"class.nanobind::handle", align 8
  %19 = alloca i32, align 4
  %20 = alloca ptr, align 8
  %21 = alloca %"class.nanobind::callable", align 8
  store ptr %0, ptr %8, align 8, !tbaa !26
  store ptr %1, ptr %9, align 8, !tbaa !26
  store ptr %2, ptr %10, align 8, !tbaa !64
  store ptr %3, ptr %11, align 8, !tbaa !24
  store i32 %4, ptr %12, align 4, !tbaa !66
  store ptr %5, ptr %13, align 8, !tbaa !68
  call void @llvm.lifetime.start.p0(i64 8, ptr %14) #16
  %22 = load ptr, ptr %9, align 8, !tbaa !26
  store ptr %22, ptr %14, align 8, !tbaa !118
  call void @llvm.lifetime.start.p0(i64 8, ptr %15) #16
  call void @_ZN8nanobind6detail5tupleIJNS0_11type_casterINS_8callableEiEEEEC2Ev(ptr noundef nonnull align 8 dereferenceable(8) %15) #15
  %23 = invoke noundef nonnull align 8 dereferenceable(8) ptr @_ZN8nanobind6detail5tupleIJNS0_11type_casterINS_8callableEiEEEE3getILm0EEERDav(ptr noundef nonnull align 8 dereferenceable(8) %15) #15
          to label %24 unwind label %37

24:                                               ; preds = %6
  %25 = load ptr, ptr %10, align 8, !tbaa !64
  %26 = getelementptr inbounds nuw ptr, ptr %25, i64 0
  %27 = load ptr, ptr %26, align 8, !tbaa !3
  invoke void @_ZN8nanobind6handleC2EPK7_object(ptr noundef nonnull align 8 dereferenceable(8) %18, ptr noundef %27) #15
          to label %28 unwind label %37

28:                                               ; preds = %24
  %29 = load ptr, ptr %11, align 8, !tbaa !24
  %30 = getelementptr inbounds nuw i8, ptr %29, i64 0
  %31 = load i8, ptr %30, align 1, !tbaa !122
  %32 = load ptr, ptr %13, align 8, !tbaa !68
  %33 = getelementptr inbounds nuw %"class.nanobind::handle", ptr %18, i32 0, i32 0
  %34 = load ptr, ptr %33, align 8
  %35 = call noundef zeroext i1 @_ZN8nanobind6detail11type_casterINS_8callableEiE11from_pythonENS_6handleEhPNS0_12cleanup_listE(ptr noundef nonnull align 8 dereferenceable(8) %23, ptr %34, i8 noundef zeroext %31, ptr noundef %32) #17
  br i1 %35, label %41, label %36

36:                                               ; preds = %28
  store ptr inttoptr (i64 1 to ptr), ptr %7, align 8
  store i32 1, ptr %19, align 4
  br label %59

37:                                               ; preds = %24, %6
  %38 = landingpad { ptr, i32 }
          cleanup
  %39 = extractvalue { ptr, i32 } %38, 0
  store ptr %39, ptr %16, align 8
  %40 = extractvalue { ptr, i32 } %38, 1
  store i32 %40, ptr %17, align 4
  br label %61

41:                                               ; preds = %28
  call void @llvm.lifetime.start.p0(i64 8, ptr %20) #16
  %42 = load ptr, ptr %14, align 8, !tbaa !118
  %43 = invoke noundef nonnull align 8 dereferenceable(8) ptr @_ZN8nanobind6detail5tupleIJNS0_11type_casterINS_8callableEiEEEE3getILm0EEERDav(ptr noundef nonnull align 8 dereferenceable(8) %15) #15
          to label %44 unwind label %50

44:                                               ; preds = %41
  %45 = invoke noundef nonnull align 8 dereferenceable(8) ptr @_ZN8nanobind6detail11type_casterINS_8callableEiEcvOS2_Ev(ptr noundef nonnull align 8 dereferenceable(8) %43) #15
          to label %46 unwind label %50

46:                                               ; preds = %44
  call void @_ZN8nanobind8callableC2EOS0_(ptr noundef nonnull align 8 dereferenceable(8) %21, ptr noundef nonnull align 8 dereferenceable(8) %45) #17
  invoke void @"_ZZL32nanobind_init_test_exception_extRN8nanobind7module_EENK4$_19clENS_8callableE"(ptr noundef nonnull align 1 dereferenceable(1) %42, ptr noundef %21) #15
          to label %47 unwind label %54

47:                                               ; preds = %46
  call void @_ZN8nanobind6objectD2Ev(ptr noundef nonnull align 8 dereferenceable(8) %21) #17
  store ptr @_Py_NoneStruct, ptr %20, align 8, !tbaa !3
  %48 = load ptr, ptr %20, align 8, !tbaa !3
  call void @_ZL10_Py_INCREFP7_object(ptr noundef %48) #15
  %49 = load ptr, ptr %20, align 8, !tbaa !3
  store ptr %49, ptr %7, align 8
  store i32 1, ptr %19, align 4
  call void @llvm.lifetime.end.p0(i64 8, ptr %20) #16
  br label %59

50:                                               ; preds = %44, %41
  %51 = landingpad { ptr, i32 }
          cleanup
  %52 = extractvalue { ptr, i32 } %51, 0
  store ptr %52, ptr %16, align 8
  %53 = extractvalue { ptr, i32 } %51, 1
  store i32 %53, ptr %17, align 4
  br label %58

54:                                               ; preds = %46
  %55 = landingpad { ptr, i32 }
          cleanup
  %56 = extractvalue { ptr, i32 } %55, 0
  store ptr %56, ptr %16, align 8
  %57 = extractvalue { ptr, i32 } %55, 1
  store i32 %57, ptr %17, align 4
  call void @_ZN8nanobind6objectD2Ev(ptr noundef nonnull align 8 dereferenceable(8) %21) #17
  br label %58

58:                                               ; preds = %54, %50
  call void @llvm.lifetime.end.p0(i64 8, ptr %20) #16
  br label %61

59:                                               ; preds = %47, %36
  call void @_ZN8nanobind6detail5tupleIJNS0_11type_casterINS_8callableEiEEEED2Ev(ptr noundef nonnull align 8 dereferenceable(8) %15) #17
  call void @llvm.lifetime.end.p0(i64 8, ptr %15) #16
  call void @llvm.lifetime.end.p0(i64 8, ptr %14) #16
  %60 = load ptr, ptr %7, align 8
  ret ptr %60

61:                                               ; preds = %58, %37
  call void @_ZN8nanobind6detail5tupleIJNS0_11type_casterINS_8callableEiEEEED2Ev(ptr noundef nonnull align 8 dereferenceable(8) %15) #17
  call void @llvm.lifetime.end.p0(i64 8, ptr %15) #16
  call void @llvm.lifetime.end.p0(i64 8, ptr %14) #16
  br label %62

62:                                               ; preds = %61
  %63 = load ptr, ptr %16, align 8
  %64 = load i32, ptr %17, align 4
  %65 = insertvalue { ptr, i32 } poison, ptr %63, 0
  %66 = insertvalue { ptr, i32 } %65, i32 %64, 1
  resume { ptr, i32 } %66
}

; Function Attrs: inlinehint mustprogress optsize uwtable
define internal noundef ptr @"_ZZN8nanobind6detail11func_createILb0ELb1EZL32nanobind_init_test_exception_extRNS_7module_EE4$_19vJNS_8callableEEJLm0EEJNS_5scopeENS_4nameEEEEP7_objectOT1_PFT2_DpT3_ESt16integer_sequenceImJXspT4_EEEDpRKT5_ENUlPvPS9_PhNS_9rv_policyEPNS0_12cleanup_listEE_8__invokeESN_SO_SP_SQ_SS_"(ptr noundef %0, ptr noundef %1, ptr noundef %2, i32 noundef %3, ptr noundef %4) #9 align 2 {
  %6 = alloca ptr, align 8
  %7 = alloca ptr, align 8
  %8 = alloca ptr, align 8
  %9 = alloca i32, align 4
  %10 = alloca ptr, align 8
  %11 = alloca %class.anon.101, align 1
  store ptr %0, ptr %6, align 8, !tbaa !26
  store ptr %1, ptr %7, align 8, !tbaa !64
  store ptr %2, ptr %8, align 8, !tbaa !24
  store i32 %3, ptr %9, align 4, !tbaa !66
  store ptr %4, ptr %10, align 8, !tbaa !68
  %12 = load ptr, ptr %6, align 8, !tbaa !26
  %13 = load ptr, ptr %7, align 8, !tbaa !64
  %14 = load ptr, ptr %8, align 8, !tbaa !24
  %15 = load i32, ptr %9, align 4, !tbaa !66
  %16 = load ptr, ptr %10, align 8, !tbaa !68
  %17 = call noundef ptr @"_ZZN8nanobind6detail11func_createILb0ELb1EZL32nanobind_init_test_exception_extRNS_7module_EE4$_19vJNS_8callableEEJLm0EEJNS_5scopeENS_4nameEEEEP7_objectOT1_PFT2_DpT3_ESt16integer_sequenceImJXspT4_EEEDpRKT5_ENKUlPvPS9_PhNS_9rv_policyEPNS0_12cleanup_listEE_clESN_SO_SP_SQ_SS_"(ptr noundef nonnull align 1 dereferenceable(1) %11, ptr noundef %12, ptr noundef %13, ptr noundef %14, i32 noundef %15, ptr noundef %16) #15
  ret ptr %17
}