; Function Attrs: inlinehint mustprogress optsize uwtable
define internal noundef nonnull ptr @"_ZZN8nanobind6detail11func_createILb0ELb1EZL32nanobind_init_test_exception_extRNS_7module_EE4$_19vJNS_8callableEEJLm0EEJNS_5scopeENS_4nameEEEEP7_objectOT1_PFT2_DpT3_ESt16integer_sequenceImJXspT4_EEEDpRKT5_ENUlPvPS9_PhNS_9rv_policyEPNS0_12cleanup_listEE_8__invokeESN_SO_SP_SQ_SS_"(ptr readnone captures(none) %0, ptr noundef readonly captures(none) %1, ptr noundef readonly captures(none) %2, i32 %3, ptr noundef %4) #11 align 2 personality ptr @__gxx_personality_v0 {
  %6 = alloca i32, align 4
  %7 = alloca %"class.nanobind::object", align 8
  %8 = alloca %"struct.nanobind::detail::tuple.103", align 8
  %9 = alloca %"class.nanobind::callable", align 8
  call void @llvm.lifetime.start.p0(i64 8, ptr nonnull %9)
  call void @llvm.lifetime.start.p0(i64 8, ptr nonnull %8) #16
  store ptr null, ptr %8, align 8
  %10 = load ptr, ptr %1, align 8, !tbaa !23
  %11 = load i8, ptr %2, align 1, !tbaa !34
  %12 = call noundef zeroext i1 @_ZN8nanobind6detail11type_casterINS_8callableEiE11from_pythonENS_6handleEhPNS0_12cleanup_listE(ptr noundef nonnull align 8 dereferenceable(8) %8, ptr %10, i8 noundef zeroext %11, ptr noundef %4) #17
  br i1 %12, label %13, label %"_ZZN8nanobind6detail11func_createILb0ELb1EZL32nanobind_init_test_exception_extRNS_7module_EE4$_19vJNS_8callableEEJLm0EEJNS_5scopeENS_4nameEEEEP7_objectOT1_PFT2_DpT3_ESt16integer_sequenceImJXspT4_EEEDpRKT5_ENKUlPvPS9_PhNS_9rv_policyEPNS0_12cleanup_listEE_clESN_SO_SP_SQ_SS_.exit"

13:                                               ; preds = %5
  %14 = load i64, ptr %8, align 8
  store i64 %14, ptr %9, align 8
  store ptr null, ptr %8, align 8, !tbaa !24
  call void @llvm.lifetime.start.p0(i64 8, ptr nonnull %7)
  call void @llvm.lifetime.start.p0(i64 4, ptr nonnull %6) #16
  store i32 123, ptr %6, align 4, !tbaa !35
  invoke void @_ZNK8nanobind6detail3apiINS_6handleEEclILNS_9rv_policyE1EJRiEEENS_6objectEDpOT0_(ptr dead_on_unwind nonnull writable sret(%"class.nanobind::object") align 8 %7, ptr noundef nonnull align 1 dereferenceable(1) %9, ptr noundef nonnull align 4 dereferenceable(4) %6) #15
          to label %33 unwind label %15

15:                                               ; preds = %13
  %16 = landingpad { ptr, i32 }
          cleanup
          catch ptr @_ZTIN8nanobind12python_errorE
  %17 = extractvalue { ptr, i32 } %16, 1
  %18 = call i32 @llvm.eh.typeid.for.p0(ptr nonnull @_ZTIN8nanobind12python_errorE) #16
  %19 = icmp eq i32 %17, %18
  br i1 %19, label %20, label %.body

20:                                               ; preds = %15
  %21 = extractvalue { ptr, i32 } %16, 0
  %22 = call ptr @__cxa_begin_catch(ptr %21) #16
  %23 = load ptr, ptr @PyExc_RuntimeError, align 8, !tbaa !23
  %24 = load i32, ptr %6, align 4, !tbaa !35
  invoke void (ptr, ptr, ptr, ...) @_ZN8nanobind10raise_fromERNS_12python_errorENS_6handleEPKcz(ptr noundef nonnull align 8 dereferenceable(40) %22, ptr %23, ptr noundef nonnull @.str.38, i32 noundef %24) #21
          to label %25 unwind label %26

25:                                               ; preds = %20
  unreachable

26:                                               ; preds = %20
  %27 = landingpad { ptr, i32 }
          cleanup
  invoke void @__cxa_end_catch()
          to label %.body unwind label %30

.body:                                            ; preds = %26, %15
  %.merged.i = phi { ptr, i32 } [ %16, %15 ], [ %27, %26 ]
  call void @llvm.lifetime.end.p0(i64 4, ptr nonnull %6) #16
  %28 = call noundef nonnull align 8 dereferenceable(8) ptr @_ZNKR8nanobind6handle7dec_refEv(ptr noundef nonnull align 8 dereferenceable(8) %9) #17
  %29 = call noundef nonnull align 8 dereferenceable(8) ptr @_ZNKR8nanobind6handle7dec_refEv(ptr noundef nonnull align 8 dereferenceable(8) %8) #17
  call void @llvm.lifetime.end.p0(i64 8, ptr nonnull %8) #16
  resume { ptr, i32 } %.merged.i

30:                                               ; preds = %26
  %31 = landingpad { ptr, i32 }
          catch ptr null
  %32 = extractvalue { ptr, i32 } %31, 0
  call void @__clang_call_terminate(ptr %32) #18
  unreachable

33:                                               ; preds = %13
  %34 = call noundef nonnull align 8 dereferenceable(8) ptr @_ZNKR8nanobind6handle7dec_refEv(ptr noundef nonnull align 8 dereferenceable(8) %7) #17
  call void @llvm.lifetime.end.p0(i64 4, ptr nonnull %6) #16
  call void @llvm.lifetime.end.p0(i64 8, ptr nonnull %7)
  %35 = call noundef nonnull align 8 dereferenceable(8) ptr @_ZNKR8nanobind6handle7dec_refEv(ptr noundef nonnull align 8 dereferenceable(8) %9) #17
  %36 = load i64, ptr @_Py_NoneStruct, align 8, !tbaa !28
  %37 = add nsw i64 %36, 1
  store i64 %37, ptr @_Py_NoneStruct, align 8, !tbaa !28
  br label %"_ZZN8nanobind6detail11func_createILb0ELb1EZL32nanobind_init_test_exception_extRNS_7module_EE4$_19vJNS_8callableEEJLm0EEJNS_5scopeENS_4nameEEEEP7_objectOT1_PFT2_DpT3_ESt16integer_sequenceImJXspT4_EEEDpRKT5_ENKUlPvPS9_PhNS_9rv_policyEPNS0_12cleanup_listEE_clESN_SO_SP_SQ_SS_.exit"

"_ZZN8nanobind6detail11func_createILb0ELb1EZL32nanobind_init_test_exception_extRNS_7module_EE4$_19vJNS_8callableEEJLm0EEJNS_5scopeENS_4nameEEEEP7_objectOT1_PFT2_DpT3_ESt16integer_sequenceImJXspT4_EEEDpRKT5_ENKUlPvPS9_PhNS_9rv_policyEPNS0_12cleanup_listEE_clESN_SO_SP_SQ_SS_.exit": ; preds = %5, %33
  %.0.i = phi ptr [ @_Py_NoneStruct, %33 ], [ inttoptr (i64 1 to ptr), %5 ]
  %38 = call noundef nonnull align 8 dereferenceable(8) ptr @_ZNKR8nanobind6handle7dec_refEv(ptr noundef nonnull align 8 dereferenceable(8) %8) #17
  call void @llvm.lifetime.end.p0(i64 8, ptr nonnull %8) #16
  call void @llvm.lifetime.end.p0(i64 8, ptr nonnull %9)
  ret ptr %.0.i
}